target datalayout = "e-m:e-p270:32:32-p271:32:32-p272:64:64-i64:64-i128:128-f80:128-n8:16:32:64-S128"
target triple = "x86_64-pc-linux-gnu"

; Function Attrs: null_pointer_is_valid sspstrong uwtable
define internal i32 @xdmcp_add_string(ptr noundef %0, i32 noundef %1, ptr noundef %2, i32 noundef %3) #0 {
  %5 = alloca ptr, align 8
  %6 = alloca i32, align 4
  %7 = alloca ptr, align 8
  %8 = alloca i32, align 4
  %9 = alloca ptr, align 8
  %10 = alloca i32, align 4
  store ptr %0, ptr %5, align 8
  store i32 %1, ptr %6, align 4
  store ptr %2, ptr %7, align 8
  store i32 %3, ptr %8, align 4
  call void @llvm.lifetime.start.p0(i64 8, ptr %9) #3
  call void @llvm.lifetime.start.p0(i64 4, ptr %10) #3
  %11 = load ptr, ptr %7, align 8
  %12 = load i32, ptr %8, align 4
  %13 = call zeroext i16 @tvb_get_ntohs(ptr noundef %11, i32 noundef %12)
  %14 = zext i16 %13 to i32
  store i32 %14, ptr %10, align 4
  %15 = call ptr @wmem_packet_scope()
  %16 = load ptr, ptr %7, align 8
  %17 = load i32, ptr %8, align 4
  %18 = add i32 %17, 2
  %19 = load i32, ptr %10, align 4
  %20 = call ptr @tvb_get_string_enc(ptr noundef %15, ptr noundef %16, i32 noundef %18, i32 noundef %19, i32 noundef 0)
  store ptr %20, ptr %9, align 8
  %21 = load ptr, ptr %5, align 8
  %22 = load i32, ptr %6, align 4
  %23 = load ptr, ptr %7, align 8
  %24 = load i32, ptr %8, align 4
  %25 = load i32, ptr %10, align 4
  %26 = add i32 %25, 2
  %27 = load ptr, ptr %9, align 8
  %28 = call ptr @proto_tree_add_string(ptr noundef %21, i32 noundef %22, ptr noundef %23, i32 noundef %24, i32 noundef %26, ptr noundef %27)
  %29 = load i32, ptr %10, align 4
  %30 = add i32 %29, 2
  call void @llvm.lifetime.end.p0(i64 4, ptr %10) #3
  call void @llvm.lifetime.end.p0(i64 8, ptr %9) #3
  ret i32 %30
}