; Function Attrs: null_pointer_is_valid sspstrong uwtable
define internal fastcc range(i32 2, 65538) i32 @xdmcp_add_string(ptr noundef %0, i32 noundef %1, ptr noundef %2, i32 noundef %3) unnamed_addr #0 {
  %5 = tail call zeroext i16 @tvb_get_ntohs(ptr noundef %2, i32 noundef %3)
  %6 = zext i16 %5 to i32
  %7 = tail call ptr @wmem_packet_scope()
  %8 = add i32 %3, 2
  %9 = tail call ptr @tvb_get_string_enc(ptr noundef %7, ptr noundef %2, i32 noundef %8, i32 noundef %6, i32 noundef 0)
  %10 = add nuw nsw i32 %6, 2
  %11 = tail call ptr @proto_tree_add_string(ptr noundef %0, i32 noundef %1, ptr noundef %2, i32 noundef %3, i32 noundef %10, ptr noundef %9)
  ret i32 %10
}